
Lab3.elf:     file format elf32-littlearm

Sections:
Idx Name          Size      VMA       LMA       File off  Algn
  0 .data         00000064  0c100000  0c100000  00008000  2**2
                  CONTENTS, ALLOC, LOAD, DATA
  1 .bss          00000034  0c100064  0c100064  00008064  2**2
                  ALLOC
  2 .text         000010b4  0c100098  0c100098  00008098  2**2
                  CONTENTS, ALLOC, LOAD, READONLY, CODE
  3 .debug_abbrev 000003fd  00000000  00000000  0000914c  2**0
                  CONTENTS, READONLY, DEBUGGING
  4 .debug_info   0000073d  00000000  00000000  00009549  2**0
                  CONTENTS, READONLY, DEBUGGING
  5 .debug_line   00000435  00000000  00000000  00009c86  2**0
                  CONTENTS, READONLY, DEBUGGING
  6 .debug_macinfo 0001daea  00000000  00000000  0000a0bb  2**0
                  CONTENTS, READONLY, DEBUGGING
  7 .debug_loc    00000420  00000000  00000000  00027ba5  2**0
                  CONTENTS, READONLY, DEBUGGING
  8 .debug_pubnames 000001ac  00000000  00000000  00027fc5  2**0
                  CONTENTS, READONLY, DEBUGGING
  9 .debug_aranges 000000e0  00000000  00000000  00028178  2**3
                  CONTENTS, READONLY, DEBUGGING
 10 .debug_str    000002a0  00000000  00000000  00028258  2**0
                  CONTENTS, READONLY, DEBUGGING
 11 .comment      0000002a  00000000  00000000  000284f8  2**0
                  CONTENTS, READONLY
 12 .ARM.attributes 00000030  00000000  00000000  00028522  2**0
                  CONTENTS, READONLY
 13 .debug_frame  00000398  00000000  00000000  00028554  2**2
                  CONTENTS, READONLY, DEBUGGING
 14 .debug_pubtypes 00000069  00000000  00000000  000288ec  2**0
                  CONTENTS, READONLY, DEBUGGING

Disassembly of section .text:

0c100098 <D8Led_init>:
 c100098:	e1a0c00d 	mov	ip, sp
 c10009c:	e92dd800 	push	{fp, ip, lr, pc}
 c1000a0:	e24cb004 	sub	fp, ip, #4
 c1000a4:	e3a03785 	mov	r3, #34865152	; 0x2140000
 c1000a8:	e3e02000 	mvn	r2, #0
 c1000ac:	e5c32000 	strb	r2, [r3]
 c1000b0:	e24bd00c 	sub	sp, fp, #12
 c1000b4:	e89d6800 	ldm	sp, {fp, sp, lr}
 c1000b8:	e12fff1e 	bx	lr

0c1000bc <D8Led_segment>:
 c1000bc:	e1a0c00d 	mov	ip, sp
 c1000c0:	e92dd800 	push	{fp, ip, lr, pc}
 c1000c4:	e24cb004 	sub	fp, ip, #4
 c1000c8:	e24dd008 	sub	sp, sp, #8
 c1000cc:	e50b0010 	str	r0, [fp, #-16]
 c1000d0:	e51b3010 	ldr	r3, [fp, #-16]
 c1000d4:	e3530000 	cmp	r3, #0
 c1000d8:	ba00000a 	blt	c100108 <D8Led_segment+0x4c>
 c1000dc:	e51b3010 	ldr	r3, [fp, #-16]
 c1000e0:	e3530007 	cmp	r3, #7
 c1000e4:	ca000007 	bgt	c100108 <D8Led_segment+0x4c>
 c1000e8:	e3a03785 	mov	r3, #34865152	; 0x2140000
 c1000ec:	e59f2020 	ldr	r2, [pc, #32]	; c100114 <D8Led_segment+0x58>
 c1000f0:	e51b1010 	ldr	r1, [fp, #-16]
 c1000f4:	e7922101 	ldr	r2, [r2, r1, lsl #2]
 c1000f8:	e20220ff 	and	r2, r2, #255	; 0xff
 c1000fc:	e1e02002 	mvn	r2, r2
 c100100:	e20220ff 	and	r2, r2, #255	; 0xff
 c100104:	e5c32000 	strb	r2, [r3]
 c100108:	e24bd00c 	sub	sp, fp, #12
 c10010c:	e89d6800 	ldm	sp, {fp, sp, lr}
 c100110:	e12fff1e 	bx	lr
 c100114:	0c100000 	.word	0x0c100000

0c100118 <D8Led_digit>:
 c100118:	e1a0c00d 	mov	ip, sp
 c10011c:	e92dd800 	push	{fp, ip, lr, pc}
 c100120:	e24cb004 	sub	fp, ip, #4
 c100124:	e24dd008 	sub	sp, sp, #8
 c100128:	e50b0010 	str	r0, [fp, #-16]
 c10012c:	e51b3010 	ldr	r3, [fp, #-16]
 c100130:	e3530000 	cmp	r3, #0
 c100134:	ba00000a 	blt	c100164 <D8Led_digit+0x4c>
 c100138:	e51b3010 	ldr	r3, [fp, #-16]
 c10013c:	e353000f 	cmp	r3, #15
 c100140:	ca000007 	bgt	c100164 <D8Led_digit+0x4c>
 c100144:	e3a03785 	mov	r3, #34865152	; 0x2140000
 c100148:	e59f2020 	ldr	r2, [pc, #32]	; c100170 <D8Led_digit+0x58>
 c10014c:	e51b1010 	ldr	r1, [fp, #-16]
 c100150:	e7922101 	ldr	r2, [r2, r1, lsl #2]
 c100154:	e20220ff 	and	r2, r2, #255	; 0xff
 c100158:	e1e02002 	mvn	r2, r2
 c10015c:	e20220ff 	and	r2, r2, #255	; 0xff
 c100160:	e5c32000 	strb	r2, [r3]
 c100164:	e24bd00c 	sub	sp, fp, #12
 c100168:	e89d6800 	ldm	sp, {fp, sp, lr}
 c10016c:	e12fff1e 	bx	lr
 c100170:	0c100020 	.word	0x0c100020

0c100174 <start>:
 c100174:	e10f0000 	mrs	r0, CPSR
 c100178:	e3c0001f 	bic	r0, r0, #31
 c10017c:	e3801013 	orr	r1, r0, #19
 c100180:	e121f001 	msr	CPSR_c, r1
 c100184:	e59f0038 	ldr	r0, [pc, #56]	; c1001c4 <InitStacks+0x4>
 c100188:	e3e0120e 	mvn	r1, #-536870912	; 0xe0000000
 c10018c:	e5801000 	str	r1, [r0]
 c100190:	e10f0000 	mrs	r0, CPSR
 c100194:	e3c00080 	bic	r0, r0, #128	; 0x80
 c100198:	e121f000 	msr	CPSR_c, r0
 c10019c:	eb000007 	bl	c1001c0 <InitStacks>
 c1001a0:	e10f0000 	mrs	r0, CPSR
 c1001a4:	e3c0001f 	bic	r0, r0, #31
 c1001a8:	e3801010 	orr	r1, r0, #16
 c1001ac:	e121f001 	msr	CPSR_c, r1
 c1001b0:	e59fd010 	ldr	sp, [pc, #16]	; c1001c8 <InitStacks+0x8>
 c1001b4:	e3a0b000 	mov	fp, #0
 c1001b8:	eb000212 	bl	c100a08 <main>

0c1001bc <End>:
 c1001bc:	eafffffe 	b	c1001bc <End>

0c1001c0 <InitStacks>:
 c1001c0:	e1a0f00e 	mov	pc, lr
 c1001c4:	01e0000c 	.word	0x01e0000c
 c1001c8:	0c7ff000 	.word	0x0c7ff000

0c1001cc <keyboard_init>:
static tQueue password;
static tQueue attempt;
static int gameCurrentMode = 0; //0 -> Asking Password, 1 -> Asking for match

void keyboard_init( void )
{
 c1001cc:	e1a0c00d 	mov	ip, sp
 c1001d0:	e92dd800 	push	{fp, ip, lr, pc}
 c1001d4:	e24cb004 	sub	fp, ip, #4

	/* Configurar puerto G para interrupciones del teclado */

	rPCONG = 0xffff; //All the pins interrupts in their lines
 c1001d8:	e59f3088 	ldr	r3, [pc, #136]	; c100268 <keyboard_init+0x9c>
 c1001dc:	e59f2088 	ldr	r2, [pc, #136]	; c10026c <keyboard_init+0xa0>
 c1001e0:	e5832000 	str	r2, [r3]

	/* Establecer ISR de teclado */
	pISR_EINT1 = keyboard_ISR;
 c1001e4:	e59f3084 	ldr	r3, [pc, #132]	; c100270 <keyboard_init+0xa4>
 c1001e8:	e59f2084 	ldr	r2, [pc, #132]	; c100274 <keyboard_init+0xa8>
 c1001ec:	e5832000 	str	r2, [r3]

	/*Borrar interrupciones antes habilitar*/

	 rI_ISPC = 0x3ffffff;	//  -Borramos pendientes por IRQ
 c1001f0:	e59f3080 	ldr	r3, [pc, #128]	; c100278 <keyboard_init+0xac>
 c1001f4:	e3e0233f 	mvn	r2, #-67108864	; 0xfc000000
 c1001f8:	e5832000 	str	r2, [r3]
	 rF_ISPC = 0x3ffffff; 	//  -Borramos pendientes FIQ
 c1001fc:	e59f3078 	ldr	r3, [pc, #120]	; c10027c <keyboard_init+0xb0>
 c100200:	e3e0233f 	mvn	r2, #-67108864	; 0xfc000000
 c100204:	e5832000 	str	r2, [r3]


    /* Desenmascara la línea del teclado y el bit global */

	 rINTMSK &= ~BIT_GLOBAL;	//Unmask global bit
 c100208:	e59f3070 	ldr	r3, [pc, #112]	; c100280 <keyboard_init+0xb4>
 c10020c:	e59f206c 	ldr	r2, [pc, #108]	; c100280 <keyboard_init+0xb4>
 c100210:	e5922000 	ldr	r2, [r2]
 c100214:	e3c22301 	bic	r2, r2, #67108864	; 0x4000000
 c100218:	e5832000 	str	r2, [r3]
	 rINTMSK &= ~BIT_EINT1;	 	//Unmask keybouard line
 c10021c:	e59f305c 	ldr	r3, [pc, #92]	; c100280 <keyboard_init+0xb4>
 c100220:	e59f2058 	ldr	r2, [pc, #88]	; c100280 <keyboard_init+0xb4>
 c100224:	e5922000 	ldr	r2, [r2]
 c100228:	e3c22401 	bic	r2, r2, #16777216	; 0x1000000
 c10022c:	e5832000 	str	r2, [r3]


	 //Inicializamos la cola y el display para mostrar una C
	 password.elements = 0;
 c100230:	e59f304c 	ldr	r3, [pc, #76]	; c100284 <keyboard_init+0xb8>
 c100234:	e3a02000 	mov	r2, #0
 c100238:	e1c320b8 	strh	r2, [r3, #8]
	 attempt.elements = 0;
 c10023c:	e59f3044 	ldr	r3, [pc, #68]	; c100288 <keyboard_init+0xbc>
 c100240:	e3a02000 	mov	r2, #0
 c100244:	e1c320b8 	strh	r2, [r3, #8]
	 gameCurrentMode = 0;
 c100248:	e59f303c 	ldr	r3, [pc, #60]	; c10028c <keyboard_init+0xc0>
 c10024c:	e3a02000 	mov	r2, #0
 c100250:	e5832000 	str	r2, [r3]
	 D8Led_digit(12); //Display C
 c100254:	e3a0000c 	mov	r0, #12
 c100258:	ebffffae 	bl	c100118 <D8Led_digit>

}
 c10025c:	e24bd00c 	sub	sp, fp, #12
 c100260:	e89d6800 	ldm	sp, {fp, sp, lr}
 c100264:	e12fff1e 	bx	lr
 c100268:	01d20040 	.word	0x01d20040
 c10026c:	0000ffff 	.word	0x0000ffff
 c100270:	0c7fff80 	.word	0x0c7fff80
 c100274:	0c1004e4 	.word	0x0c1004e4
 c100278:	01e00024 	.word	0x01e00024
 c10027c:	01e0003c 	.word	0x01e0003c
 c100280:	01e0000c 	.word	0x01e0000c
 c100284:	0c100064 	.word	0x0c100064
 c100288:	0c100070 	.word	0x0c100070
 c10028c:	0c10007c 	.word	0x0c10007c

0c100290 <key_read>:

static int key_read( void )
{
 c100290:	e1a0c00d 	mov	ip, sp
 c100294:	e92dd800 	push	{fp, ip, lr, pc}
 c100298:	e24cb004 	sub	fp, ip, #4
 c10029c:	e24dd008 	sub	sp, sp, #8
	int value;
	char temp;

	/* leer linea 1 */
	temp = *(KEYBADDR+0xfd);
 c1002a0:	e59f322c 	ldr	r3, [pc, #556]	; c1004d4 <key_read+0x244>
 c1002a4:	e5d33000 	ldrb	r3, [r3]
 c1002a8:	e54b3011 	strb	r3, [fp, #-17]	; 0xffffffef
	temp = temp & KEY_VALUE_MASK;
 c1002ac:	e55b3011 	ldrb	r3, [fp, #-17]	; 0xffffffef
 c1002b0:	e203300f 	and	r3, r3, #15
 c1002b4:	e54b3011 	strb	r3, [fp, #-17]	; 0xffffffef
	if (temp  != KEY_VALUE_MASK)
 c1002b8:	e55b3011 	ldrb	r3, [fp, #-17]	; 0xffffffef
 c1002bc:	e353000f 	cmp	r3, #15
 c1002c0:	0a000018 	beq	c100328 <key_read+0x98>
	{
		if( temp == 0x0E )
 c1002c4:	e55b3011 	ldrb	r3, [fp, #-17]	; 0xffffffef
 c1002c8:	e353000e 	cmp	r3, #14
 c1002cc:	1a000002 	bne	c1002dc <key_read+0x4c>
			value = 3;
 c1002d0:	e3a03003 	mov	r3, #3
 c1002d4:	e50b3010 	str	r3, [fp, #-16]
 c1002d8:	ea000010 	b	c100320 <key_read+0x90>
		else if( temp == 0x0D )
 c1002dc:	e55b3011 	ldrb	r3, [fp, #-17]	; 0xffffffef
 c1002e0:	e353000d 	cmp	r3, #13
 c1002e4:	1a000002 	bne	c1002f4 <key_read+0x64>
			value = 2;
 c1002e8:	e3a03002 	mov	r3, #2
 c1002ec:	e50b3010 	str	r3, [fp, #-16]
 c1002f0:	ea00000a 	b	c100320 <key_read+0x90>
		else if( temp == 0x0B )
 c1002f4:	e55b3011 	ldrb	r3, [fp, #-17]	; 0xffffffef
 c1002f8:	e353000b 	cmp	r3, #11
 c1002fc:	1a000002 	bne	c10030c <key_read+0x7c>
			value = 1;
 c100300:	e3a03001 	mov	r3, #1
 c100304:	e50b3010 	str	r3, [fp, #-16]
 c100308:	ea000004 	b	c100320 <key_read+0x90>
		else if( temp == 0x07 )
 c10030c:	e55b3011 	ldrb	r3, [fp, #-17]	; 0xffffffef
 c100310:	e3530007 	cmp	r3, #7
 c100314:	1a000001 	bne	c100320 <key_read+0x90>
			value = 0;
 c100318:	e3a03000 	mov	r3, #0
 c10031c:	e50b3010 	str	r3, [fp, #-16]
		return value;
 c100320:	e51b3010 	ldr	r3, [fp, #-16]
 c100324:	ea000066 	b	c1004c4 <key_read+0x234>
	}
	
	/* linea 2 */
	temp = *(KEYBADDR+0xfb);
 c100328:	e59f31a8 	ldr	r3, [pc, #424]	; c1004d8 <key_read+0x248>
 c10032c:	e5d33000 	ldrb	r3, [r3]
 c100330:	e54b3011 	strb	r3, [fp, #-17]	; 0xffffffef
	temp = temp & KEY_VALUE_MASK;
 c100334:	e55b3011 	ldrb	r3, [fp, #-17]	; 0xffffffef
 c100338:	e203300f 	and	r3, r3, #15
 c10033c:	e54b3011 	strb	r3, [fp, #-17]	; 0xffffffef
	if (temp  != KEY_VALUE_MASK)
 c100340:	e55b3011 	ldrb	r3, [fp, #-17]	; 0xffffffef
 c100344:	e353000f 	cmp	r3, #15
 c100348:	0a000018 	beq	c1003b0 <key_read+0x120>
	{
		if( temp == 0x0E )
 c10034c:	e55b3011 	ldrb	r3, [fp, #-17]	; 0xffffffef
 c100350:	e353000e 	cmp	r3, #14
 c100354:	1a000002 	bne	c100364 <key_read+0xd4>
			value = 7;
 c100358:	e3a03007 	mov	r3, #7
 c10035c:	e50b3010 	str	r3, [fp, #-16]
 c100360:	ea000010 	b	c1003a8 <key_read+0x118>
		else if( temp == 0x0D )
 c100364:	e55b3011 	ldrb	r3, [fp, #-17]	; 0xffffffef
 c100368:	e353000d 	cmp	r3, #13
 c10036c:	1a000002 	bne	c10037c <key_read+0xec>
			value = 6;
 c100370:	e3a03006 	mov	r3, #6
 c100374:	e50b3010 	str	r3, [fp, #-16]
 c100378:	ea00000a 	b	c1003a8 <key_read+0x118>
		else if( temp == 0x0B )
 c10037c:	e55b3011 	ldrb	r3, [fp, #-17]	; 0xffffffef
 c100380:	e353000b 	cmp	r3, #11
 c100384:	1a000002 	bne	c100394 <key_read+0x104>
			value = 5;
 c100388:	e3a03005 	mov	r3, #5
 c10038c:	e50b3010 	str	r3, [fp, #-16]
 c100390:	ea000004 	b	c1003a8 <key_read+0x118>
		else if( temp == 0x07 )
 c100394:	e55b3011 	ldrb	r3, [fp, #-17]	; 0xffffffef
 c100398:	e3530007 	cmp	r3, #7
 c10039c:	1a000001 	bne	c1003a8 <key_read+0x118>
			value = 4;
 c1003a0:	e3a03004 	mov	r3, #4
 c1003a4:	e50b3010 	str	r3, [fp, #-16]
		return value;
 c1003a8:	e51b3010 	ldr	r3, [fp, #-16]
 c1003ac:	ea000044 	b	c1004c4 <key_read+0x234>
	}
	
	/* linea 3 */
	temp = *(KEYBADDR+0xf7);
 c1003b0:	e59f3124 	ldr	r3, [pc, #292]	; c1004dc <key_read+0x24c>
 c1003b4:	e5d33000 	ldrb	r3, [r3]
 c1003b8:	e54b3011 	strb	r3, [fp, #-17]	; 0xffffffef
	temp = temp & KEY_VALUE_MASK;
 c1003bc:	e55b3011 	ldrb	r3, [fp, #-17]	; 0xffffffef
 c1003c0:	e203300f 	and	r3, r3, #15
 c1003c4:	e54b3011 	strb	r3, [fp, #-17]	; 0xffffffef
	if (temp  != KEY_VALUE_MASK)
 c1003c8:	e55b3011 	ldrb	r3, [fp, #-17]	; 0xffffffef
 c1003cc:	e353000f 	cmp	r3, #15
 c1003d0:	0a000018 	beq	c100438 <key_read+0x1a8>
	{
		if( temp == 0x0E )
 c1003d4:	e55b3011 	ldrb	r3, [fp, #-17]	; 0xffffffef
 c1003d8:	e353000e 	cmp	r3, #14
 c1003dc:	1a000002 	bne	c1003ec <key_read+0x15c>
			value = 0xb;
 c1003e0:	e3a0300b 	mov	r3, #11
 c1003e4:	e50b3010 	str	r3, [fp, #-16]
 c1003e8:	ea000010 	b	c100430 <key_read+0x1a0>
		else if( temp == 0x0D )
 c1003ec:	e55b3011 	ldrb	r3, [fp, #-17]	; 0xffffffef
 c1003f0:	e353000d 	cmp	r3, #13
 c1003f4:	1a000002 	bne	c100404 <key_read+0x174>
			value = 0xa;
 c1003f8:	e3a0300a 	mov	r3, #10
 c1003fc:	e50b3010 	str	r3, [fp, #-16]
 c100400:	ea00000a 	b	c100430 <key_read+0x1a0>
		else if( temp == 0x0B )
 c100404:	e55b3011 	ldrb	r3, [fp, #-17]	; 0xffffffef
 c100408:	e353000b 	cmp	r3, #11
 c10040c:	1a000002 	bne	c10041c <key_read+0x18c>
			value = 9;
 c100410:	e3a03009 	mov	r3, #9
 c100414:	e50b3010 	str	r3, [fp, #-16]
 c100418:	ea000004 	b	c100430 <key_read+0x1a0>
		else if( temp == 0x07 )
 c10041c:	e55b3011 	ldrb	r3, [fp, #-17]	; 0xffffffef
 c100420:	e3530007 	cmp	r3, #7
 c100424:	1a000001 	bne	c100430 <key_read+0x1a0>
			value = 8;
 c100428:	e3a03008 	mov	r3, #8
 c10042c:	e50b3010 	str	r3, [fp, #-16]
		return value;
 c100430:	e51b3010 	ldr	r3, [fp, #-16]
 c100434:	ea000022 	b	c1004c4 <key_read+0x234>
	}
	
	/* linea 4 */
	temp = *(KEYBADDR+0xef);
 c100438:	e59f30a0 	ldr	r3, [pc, #160]	; c1004e0 <key_read+0x250>
 c10043c:	e5d33000 	ldrb	r3, [r3]
 c100440:	e54b3011 	strb	r3, [fp, #-17]	; 0xffffffef
	temp = temp & KEY_VALUE_MASK;
 c100444:	e55b3011 	ldrb	r3, [fp, #-17]	; 0xffffffef
 c100448:	e203300f 	and	r3, r3, #15
 c10044c:	e54b3011 	strb	r3, [fp, #-17]	; 0xffffffef
	if (temp  != KEY_VALUE_MASK)
 c100450:	e55b3011 	ldrb	r3, [fp, #-17]	; 0xffffffef
 c100454:	e353000f 	cmp	r3, #15
 c100458:	0a000018 	beq	c1004c0 <key_read+0x230>
	{
		if( temp == 0x0E )
 c10045c:	e55b3011 	ldrb	r3, [fp, #-17]	; 0xffffffef
 c100460:	e353000e 	cmp	r3, #14
 c100464:	1a000002 	bne	c100474 <key_read+0x1e4>
			value = 0xf;
 c100468:	e3a0300f 	mov	r3, #15
 c10046c:	e50b3010 	str	r3, [fp, #-16]
 c100470:	ea000010 	b	c1004b8 <key_read+0x228>
		else if( temp == 0x0D )
 c100474:	e55b3011 	ldrb	r3, [fp, #-17]	; 0xffffffef
 c100478:	e353000d 	cmp	r3, #13
 c10047c:	1a000002 	bne	c10048c <key_read+0x1fc>
			value = 0xe;
 c100480:	e3a0300e 	mov	r3, #14
 c100484:	e50b3010 	str	r3, [fp, #-16]
 c100488:	ea00000a 	b	c1004b8 <key_read+0x228>
		else if( temp == 0x0B )
 c10048c:	e55b3011 	ldrb	r3, [fp, #-17]	; 0xffffffef
 c100490:	e353000b 	cmp	r3, #11
 c100494:	1a000002 	bne	c1004a4 <key_read+0x214>
			value = 0xd;
 c100498:	e3a0300d 	mov	r3, #13
 c10049c:	e50b3010 	str	r3, [fp, #-16]
 c1004a0:	ea000004 	b	c1004b8 <key_read+0x228>
		else if( temp == 0x07 )
 c1004a4:	e55b3011 	ldrb	r3, [fp, #-17]	; 0xffffffef
 c1004a8:	e3530007 	cmp	r3, #7
 c1004ac:	1a000001 	bne	c1004b8 <key_read+0x228>
			value = 0xc;
 c1004b0:	e3a0300c 	mov	r3, #12
 c1004b4:	e50b3010 	str	r3, [fp, #-16]
		return value;
 c1004b8:	e51b3010 	ldr	r3, [fp, #-16]
 c1004bc:	ea000000 	b	c1004c4 <key_read+0x234>
	}
	return -1;
 c1004c0:	e3e03000 	mvn	r3, #0
}
 c1004c4:	e1a00003 	mov	r0, r3
 c1004c8:	e24bd00c 	sub	sp, fp, #12
 c1004cc:	e89d6800 	ldm	sp, {fp, sp, lr}
 c1004d0:	e12fff1e 	bx	lr
 c1004d4:	060000fd 	.word	0x060000fd
 c1004d8:	060000fb 	.word	0x060000fb
 c1004dc:	060000f7 	.word	0x060000f7
 c1004e0:	060000ef 	.word	0x060000ef

0c1004e4 <keyboard_ISR>:

static void keyboard_ISR(void)
{
 c1004e4:	e52dc004 	push	{ip}		; (str ip, [sp, #-4]!)
 c1004e8:	e1a0c00d 	mov	ip, sp
 c1004ec:	e92dd80f 	push	{r0, r1, r2, r3, fp, ip, lr, pc}
 c1004f0:	e24cb004 	sub	fp, ip, #4
 c1004f4:	e24dd018 	sub	sp, sp, #24
	int key;

	/* Eliminar rebotes de presion */
	Delay(200);
 c1004f8:	e3a000c8 	mov	r0, #200	; 0xc8
 c1004fc:	eb000232 	bl	c100dcc <Delay>

	/* Escaneo de tecla */
	key = key_read();
 c100500:	ebffff62 	bl	c100290 <key_read>
 c100504:	e50b0028 	str	r0, [fp, #-40]	; 0xffffffd8
	/*if (key != -1)
		D8Led_digit(key); //Display the key on the D8 Led*/

	/*****************************************GAME LOGIC**********************************************************/
	//Password mode
	if(gameCurrentMode == 0)
 c100508:	e59f322c 	ldr	r3, [pc, #556]	; c10073c <keyboard_ISR+0x258>
 c10050c:	e5933000 	ldr	r3, [r3]
 c100510:	e3530000 	cmp	r3, #0
 c100514:	1a00001c 	bne	c10058c <keyboard_ISR+0xa8>
	{
		//Si la tecla pulsada no es la F
		if(key != 15)
 c100518:	e51b3028 	ldr	r3, [fp, #-40]	; 0xffffffd8
 c10051c:	e353000f 	cmp	r3, #15
 c100520:	0a000003 	beq	c100534 <keyboard_ISR+0x50>
		{
			insertElementToQueue(&password, key);
 c100524:	e59f0214 	ldr	r0, [pc, #532]	; c100740 <keyboard_ISR+0x25c>
 c100528:	e51b1028 	ldr	r1, [fp, #-40]	; 0xffffffd8
 c10052c:	eb000274 	bl	c100f04 <insertElementToQueue>
		}
	}
	/**************************************************************************************************************/

	/* Esperar a que la tecla se suelte */
	while (!(rPDATG & 0x02));
 c100530:	ea000071 	b	c1006fc <keyboard_ISR+0x218>
			insertElementToQueue(&password, key);
		}
		else
		{
			//Si la pass tiene 4 digitos msotrarlos cada segundo, sino no hacer nada
			if(password.elements == 4)
 c100534:	e59f3204 	ldr	r3, [pc, #516]	; c100740 <keyboard_ISR+0x25c>
 c100538:	e1d330b8 	ldrh	r3, [r3, #8]
 c10053c:	e1a03803 	lsl	r3, r3, #16
 c100540:	e1a03843 	asr	r3, r3, #16
 c100544:	e3530004 	cmp	r3, #4
 c100548:	1a000068 	bne	c1006f0 <keyboard_ISR+0x20c>
			{
				 timer_init(1); //Cada 1 segundo
 c10054c:	e3a00001 	mov	r0, #1
 c100550:	eb000180 	bl	c100b58 <timer_init>
				 timer_start(password);
 c100554:	e59f31e4 	ldr	r3, [pc, #484]	; c100740 <keyboard_ISR+0x25c>
 c100558:	e8930007 	ldm	r3, {r0, r1, r2}
 c10055c:	eb0001a9 	bl	c100c08 <timer_start>

				 while(!timer_isStop())
 c100560:	e1a00000 	nop			; (mov r0, r0)
 c100564:	eb00020b 	bl	c100d98 <timer_isStop>
 c100568:	e1a03000 	mov	r3, r0
 c10056c:	e3530000 	cmp	r3, #0
 c100570:	0afffffb 	beq	c100564 <keyboard_ISR+0x80>
				 {}

				gameCurrentMode = 1; //Cambiar de modo
 c100574:	e59f31c0 	ldr	r3, [pc, #448]	; c10073c <keyboard_ISR+0x258>
 c100578:	e3a02001 	mov	r2, #1
 c10057c:	e5832000 	str	r2, [r3]
				D8Led_digit(15); //Mostar F
 c100580:	e3a0000f 	mov	r0, #15
 c100584:	ebfffee3 	bl	c100118 <D8Led_digit>
		}
	}
	/**************************************************************************************************************/

	/* Esperar a que la tecla se suelte */
	while (!(rPDATG & 0x02));
 c100588:	ea00005b 	b	c1006fc <keyboard_ISR+0x218>
		}
	}
	else
	{
		//Si la tecla pulsada no es la F
		if(key != 15)
 c10058c:	e51b3028 	ldr	r3, [fp, #-40]	; 0xffffffd8
 c100590:	e353000f 	cmp	r3, #15
 c100594:	0a000003 	beq	c1005a8 <keyboard_ISR+0xc4>
		{
			insertElementToQueue(&attempt, key);
 c100598:	e59f01a4 	ldr	r0, [pc, #420]	; c100744 <keyboard_ISR+0x260>
 c10059c:	e51b1028 	ldr	r1, [fp, #-40]	; 0xffffffd8
 c1005a0:	eb000257 	bl	c100f04 <insertElementToQueue>
		}
	}
	/**************************************************************************************************************/

	/* Esperar a que la tecla se suelte */
	while (!(rPDATG & 0x02));
 c1005a4:	ea000054 	b	c1006fc <keyboard_ISR+0x218>
			insertElementToQueue(&attempt, key);
		}
		else
		{
			//Si el attempt tiene 4 digitos msotrarlos cada segundo, sino no hacer nada
			if(attempt.elements == 4)
 c1005a8:	e59f3194 	ldr	r3, [pc, #404]	; c100744 <keyboard_ISR+0x260>
 c1005ac:	e1d330b8 	ldrh	r3, [r3, #8]
 c1005b0:	e1a03803 	lsl	r3, r3, #16
 c1005b4:	e1a03843 	asr	r3, r3, #16
 c1005b8:	e3530004 	cmp	r3, #4
 c1005bc:	1a00004d 	bne	c1006f8 <keyboard_ISR+0x214>
			{
			 timer_init(1);
 c1005c0:	e3a00001 	mov	r0, #1
 c1005c4:	eb000163 	bl	c100b58 <timer_init>
			 timer_start(attempt);
 c1005c8:	e59f3174 	ldr	r3, [pc, #372]	; c100744 <keyboard_ISR+0x260>
 c1005cc:	e8930007 	ldm	r3, {r0, r1, r2}
 c1005d0:	eb00018c 	bl	c100c08 <timer_start>

			 while(!timer_isStop())
 c1005d4:	e1a00000 	nop			; (mov r0, r0)
 c1005d8:	eb0001ee 	bl	c100d98 <timer_isStop>
 c1005dc:	e1a03000 	mov	r3, r0
 c1005e0:	e3530000 	cmp	r3, #0
 c1005e4:	0afffffb 	beq	c1005d8 <keyboard_ISR+0xf4>
			 {}
				 int equals = 1;
 c1005e8:	e3a03001 	mov	r3, #1
 c1005ec:	e50b3020 	str	r3, [fp, #-32]	; 0xffffffe0
				 int i;
				 for(i = 0; i < 4; i++)
 c1005f0:	e3a03000 	mov	r3, #0
 c1005f4:	e50b3024 	str	r3, [fp, #-36]	; 0xffffffdc
 c1005f8:	ea000015 	b	c100654 <keyboard_ISR+0x170>
				 {
					 if(password._queue[i] != attempt._queue[i])
 c1005fc:	e59f213c 	ldr	r2, [pc, #316]	; c100740 <keyboard_ISR+0x25c>
 c100600:	e51b3024 	ldr	r3, [fp, #-36]	; 0xffffffdc
 c100604:	e1a03083 	lsl	r3, r3, #1
 c100608:	e0823003 	add	r3, r2, r3
 c10060c:	e1d320b0 	ldrh	r2, [r3]
 c100610:	e59f112c 	ldr	r1, [pc, #300]	; c100744 <keyboard_ISR+0x260>
 c100614:	e51b3024 	ldr	r3, [fp, #-36]	; 0xffffffdc
 c100618:	e1a03083 	lsl	r3, r3, #1
 c10061c:	e0813003 	add	r3, r1, r3
 c100620:	e1d330b0 	ldrh	r3, [r3]
 c100624:	e1a02802 	lsl	r2, r2, #16
 c100628:	e1a02842 	asr	r2, r2, #16
 c10062c:	e1a03803 	lsl	r3, r3, #16
 c100630:	e1a03843 	asr	r3, r3, #16
 c100634:	e1520003 	cmp	r2, r3
 c100638:	0a000002 	beq	c100648 <keyboard_ISR+0x164>
					 {
						 equals = 0;
 c10063c:	e3a03000 	mov	r3, #0
 c100640:	e50b3020 	str	r3, [fp, #-32]	; 0xffffffe0
						 break;
 c100644:	ea000005 	b	c100660 <keyboard_ISR+0x17c>

			 while(!timer_isStop())
			 {}
				 int equals = 1;
				 int i;
				 for(i = 0; i < 4; i++)
 c100648:	e51b3024 	ldr	r3, [fp, #-36]	; 0xffffffdc
 c10064c:	e2833001 	add	r3, r3, #1
 c100650:	e50b3024 	str	r3, [fp, #-36]	; 0xffffffdc
 c100654:	e51b3024 	ldr	r3, [fp, #-36]	; 0xffffffdc
 c100658:	e3530003 	cmp	r3, #3
 c10065c:	daffffe6 	ble	c1005fc <keyboard_ISR+0x118>
					 }
				 }

				 //Hacer una lista negativa para que el timer no la muestre
				 tQueue emptyQ;
				 emptyQ.elements = -1;
 c100660:	e3e03000 	mvn	r3, #0
 c100664:	e14b32bc 	strh	r3, [fp, #-44]	; 0xffffffd4
				 if(equals == 1)
 c100668:	e51b3020 	ldr	r3, [fp, #-32]	; 0xffffffe0
 c10066c:	e3530001 	cmp	r3, #1
 c100670:	1a00000c 	bne	c1006a8 <keyboard_ISR+0x1c4>
				 {
					 D8Led_digit(10); //A
 c100674:	e3a0000a 	mov	r0, #10
 c100678:	ebfffea6 	bl	c100118 <D8Led_digit>
					 timer_init(2);
 c10067c:	e3a00002 	mov	r0, #2
 c100680:	eb000134 	bl	c100b58 <timer_init>
					 timer_start(emptyQ);
 c100684:	e24b3034 	sub	r3, fp, #52	; 0x34
 c100688:	e8930007 	ldm	r3, {r0, r1, r2}
 c10068c:	eb00015d 	bl	c100c08 <timer_start>
					 while(!timer_isStop())
 c100690:	e1a00000 	nop			; (mov r0, r0)
 c100694:	eb0001bf 	bl	c100d98 <timer_isStop>
 c100698:	e1a03000 	mov	r3, r0
 c10069c:	e3530000 	cmp	r3, #0
 c1006a0:	0afffffb 	beq	c100694 <keyboard_ISR+0x1b0>
 c1006a4:	ea00000b 	b	c1006d8 <keyboard_ISR+0x1f4>
					 {}
				 }
				 else
				 {
					 D8Led_digit(14); //E
 c1006a8:	e3a0000e 	mov	r0, #14
 c1006ac:	ebfffe99 	bl	c100118 <D8Led_digit>
					 timer_init(2);
 c1006b0:	e3a00002 	mov	r0, #2
 c1006b4:	eb000127 	bl	c100b58 <timer_init>
					 timer_start(emptyQ);
 c1006b8:	e24b3034 	sub	r3, fp, #52	; 0x34
 c1006bc:	e8930007 	ldm	r3, {r0, r1, r2}
 c1006c0:	eb000150 	bl	c100c08 <timer_start>
					 while(!timer_isStop())
 c1006c4:	e1a00000 	nop			; (mov r0, r0)
 c1006c8:	eb0001b2 	bl	c100d98 <timer_isStop>
 c1006cc:	e1a03000 	mov	r3, r0
 c1006d0:	e3530000 	cmp	r3, #0
 c1006d4:	0afffffb 	beq	c1006c8 <keyboard_ISR+0x1e4>
					{}
				 }


				 //Volvemos a empezar el juego
				 gameCurrentMode = 0; //Cambiar de modo
 c1006d8:	e59f305c 	ldr	r3, [pc, #92]	; c10073c <keyboard_ISR+0x258>
 c1006dc:	e3a02000 	mov	r2, #0
 c1006e0:	e5832000 	str	r2, [r3]
				 D8Led_digit(15); //Mostar C
 c1006e4:	e3a0000f 	mov	r0, #15
 c1006e8:	ebfffe8a 	bl	c100118 <D8Led_digit>
		}
	}
	/**************************************************************************************************************/

	/* Esperar a que la tecla se suelte */
	while (!(rPDATG & 0x02));
 c1006ec:	ea000002 	b	c1006fc <keyboard_ISR+0x218>
 c1006f0:	e1a00000 	nop			; (mov r0, r0)
 c1006f4:	ea000000 	b	c1006fc <keyboard_ISR+0x218>
 c1006f8:	e1a00000 	nop			; (mov r0, r0)
 c1006fc:	e59f3044 	ldr	r3, [pc, #68]	; c100748 <keyboard_ISR+0x264>
 c100700:	e5933000 	ldr	r3, [r3]
 c100704:	e2033002 	and	r3, r3, #2
 c100708:	e3530000 	cmp	r3, #0
 c10070c:	0afffffa 	beq	c1006fc <keyboard_ISR+0x218>

    /* Eliminar rebotes de depreson */
    Delay(200);
 c100710:	e3a000c8 	mov	r0, #200	; 0xc8
 c100714:	eb0001ac 	bl	c100dcc <Delay>

    /* Borrar interrupciones pendientes */
    rI_ISPC |= BIT_EINT1;
 c100718:	e59f302c 	ldr	r3, [pc, #44]	; c10074c <keyboard_ISR+0x268>
 c10071c:	e59f2028 	ldr	r2, [pc, #40]	; c10074c <keyboard_ISR+0x268>
 c100720:	e5922000 	ldr	r2, [r2]
 c100724:	e3822401 	orr	r2, r2, #16777216	; 0x1000000
 c100728:	e5832000 	str	r2, [r3]
}
 c10072c:	e24bd01c 	sub	sp, fp, #28
 c100730:	e89d680f 	ldm	sp, {r0, r1, r2, r3, fp, sp, lr}
 c100734:	e49dc004 	pop	{ip}		; (ldr ip, [sp], #4)
 c100738:	e25ef004 	subs	pc, lr, #4
 c10073c:	0c10007c 	.word	0x0c10007c
 c100740:	0c100064 	.word	0x0c100064
 c100744:	0c100070 	.word	0x0c100070
 c100748:	01d20044 	.word	0x01d20044
 c10074c:	01e00024 	.word	0x01e00024

0c100750 <leds_init>:
 c100750:	e1a0c00d 	mov	ip, sp
 c100754:	e92dd800 	push	{fp, ip, lr, pc}
 c100758:	e24cb004 	sub	fp, ip, #4
 c10075c:	e59f3020 	ldr	r3, [pc, #32]	; c100784 <leds_init+0x34>
 c100760:	e59f2020 	ldr	r2, [pc, #32]	; c100788 <leds_init+0x38>
 c100764:	e5832000 	str	r2, [r3]
 c100768:	e59f301c 	ldr	r3, [pc, #28]	; c10078c <leds_init+0x3c>
 c10076c:	e5933000 	ldr	r3, [r3]
 c100770:	e1a00003 	mov	r0, r3
 c100774:	eb000075 	bl	c100950 <leds_display>
 c100778:	e24bd00c 	sub	sp, fp, #12
 c10077c:	e89d6800 	ldm	sp, {fp, sp, lr}
 c100780:	e12fff1e 	bx	lr
 c100784:	01d20008 	.word	0x01d20008
 c100788:	000001ff 	.word	0x000001ff
 c10078c:	0c100080 	.word	0x0c100080

0c100790 <led1_on>:
 c100790:	e1a0c00d 	mov	ip, sp
 c100794:	e92dd800 	push	{fp, ip, lr, pc}
 c100798:	e24cb004 	sub	fp, ip, #4
 c10079c:	e59f3028 	ldr	r3, [pc, #40]	; c1007cc <led1_on+0x3c>
 c1007a0:	e5933000 	ldr	r3, [r3]
 c1007a4:	e3832001 	orr	r2, r3, #1
 c1007a8:	e59f301c 	ldr	r3, [pc, #28]	; c1007cc <led1_on+0x3c>
 c1007ac:	e5832000 	str	r2, [r3]
 c1007b0:	e59f3014 	ldr	r3, [pc, #20]	; c1007cc <led1_on+0x3c>
 c1007b4:	e5933000 	ldr	r3, [r3]
 c1007b8:	e1a00003 	mov	r0, r3
 c1007bc:	eb000063 	bl	c100950 <leds_display>
 c1007c0:	e24bd00c 	sub	sp, fp, #12
 c1007c4:	e89d6800 	ldm	sp, {fp, sp, lr}
 c1007c8:	e12fff1e 	bx	lr
 c1007cc:	0c100080 	.word	0x0c100080

0c1007d0 <led1_off>:
 c1007d0:	e1a0c00d 	mov	ip, sp
 c1007d4:	e92dd800 	push	{fp, ip, lr, pc}
 c1007d8:	e24cb004 	sub	fp, ip, #4
 c1007dc:	e59f3028 	ldr	r3, [pc, #40]	; c10080c <led1_off+0x3c>
 c1007e0:	e5933000 	ldr	r3, [r3]
 c1007e4:	e3c32001 	bic	r2, r3, #1
 c1007e8:	e59f301c 	ldr	r3, [pc, #28]	; c10080c <led1_off+0x3c>
 c1007ec:	e5832000 	str	r2, [r3]
 c1007f0:	e59f3014 	ldr	r3, [pc, #20]	; c10080c <led1_off+0x3c>
 c1007f4:	e5933000 	ldr	r3, [r3]
 c1007f8:	e1a00003 	mov	r0, r3
 c1007fc:	eb000053 	bl	c100950 <leds_display>
 c100800:	e24bd00c 	sub	sp, fp, #12
 c100804:	e89d6800 	ldm	sp, {fp, sp, lr}
 c100808:	e12fff1e 	bx	lr
 c10080c:	0c100080 	.word	0x0c100080

0c100810 <led2_on>:
 c100810:	e1a0c00d 	mov	ip, sp
 c100814:	e92dd800 	push	{fp, ip, lr, pc}
 c100818:	e24cb004 	sub	fp, ip, #4
 c10081c:	e59f3028 	ldr	r3, [pc, #40]	; c10084c <led2_on+0x3c>
 c100820:	e5933000 	ldr	r3, [r3]
 c100824:	e3832002 	orr	r2, r3, #2
 c100828:	e59f301c 	ldr	r3, [pc, #28]	; c10084c <led2_on+0x3c>
 c10082c:	e5832000 	str	r2, [r3]
 c100830:	e59f3014 	ldr	r3, [pc, #20]	; c10084c <led2_on+0x3c>
 c100834:	e5933000 	ldr	r3, [r3]
 c100838:	e1a00003 	mov	r0, r3
 c10083c:	eb000043 	bl	c100950 <leds_display>
 c100840:	e24bd00c 	sub	sp, fp, #12
 c100844:	e89d6800 	ldm	sp, {fp, sp, lr}
 c100848:	e12fff1e 	bx	lr
 c10084c:	0c100080 	.word	0x0c100080

0c100850 <led2_off>:
 c100850:	e1a0c00d 	mov	ip, sp
 c100854:	e92dd800 	push	{fp, ip, lr, pc}
 c100858:	e24cb004 	sub	fp, ip, #4
 c10085c:	e59f3028 	ldr	r3, [pc, #40]	; c10088c <led2_off+0x3c>
 c100860:	e5933000 	ldr	r3, [r3]
 c100864:	e3c32002 	bic	r2, r3, #2
 c100868:	e59f301c 	ldr	r3, [pc, #28]	; c10088c <led2_off+0x3c>
 c10086c:	e5832000 	str	r2, [r3]
 c100870:	e59f3014 	ldr	r3, [pc, #20]	; c10088c <led2_off+0x3c>
 c100874:	e5933000 	ldr	r3, [r3]
 c100878:	e1a00003 	mov	r0, r3
 c10087c:	eb000033 	bl	c100950 <leds_display>
 c100880:	e24bd00c 	sub	sp, fp, #12
 c100884:	e89d6800 	ldm	sp, {fp, sp, lr}
 c100888:	e12fff1e 	bx	lr
 c10088c:	0c100080 	.word	0x0c100080

0c100890 <led1_switch>:
 c100890:	e1a0c00d 	mov	ip, sp
 c100894:	e92dd800 	push	{fp, ip, lr, pc}
 c100898:	e24cb004 	sub	fp, ip, #4
 c10089c:	e59f3028 	ldr	r3, [pc, #40]	; c1008cc <led1_switch+0x3c>
 c1008a0:	e5933000 	ldr	r3, [r3]
 c1008a4:	e2232001 	eor	r2, r3, #1
 c1008a8:	e59f301c 	ldr	r3, [pc, #28]	; c1008cc <led1_switch+0x3c>
 c1008ac:	e5832000 	str	r2, [r3]
 c1008b0:	e59f3014 	ldr	r3, [pc, #20]	; c1008cc <led1_switch+0x3c>
 c1008b4:	e5933000 	ldr	r3, [r3]
 c1008b8:	e1a00003 	mov	r0, r3
 c1008bc:	eb000023 	bl	c100950 <leds_display>
 c1008c0:	e24bd00c 	sub	sp, fp, #12
 c1008c4:	e89d6800 	ldm	sp, {fp, sp, lr}
 c1008c8:	e12fff1e 	bx	lr
 c1008cc:	0c100080 	.word	0x0c100080

0c1008d0 <led2_switch>:
 c1008d0:	e1a0c00d 	mov	ip, sp
 c1008d4:	e92dd800 	push	{fp, ip, lr, pc}
 c1008d8:	e24cb004 	sub	fp, ip, #4
 c1008dc:	e59f3028 	ldr	r3, [pc, #40]	; c10090c <led2_switch+0x3c>
 c1008e0:	e5933000 	ldr	r3, [r3]
 c1008e4:	e2232002 	eor	r2, r3, #2
 c1008e8:	e59f301c 	ldr	r3, [pc, #28]	; c10090c <led2_switch+0x3c>
 c1008ec:	e5832000 	str	r2, [r3]
 c1008f0:	e59f3014 	ldr	r3, [pc, #20]	; c10090c <led2_switch+0x3c>
 c1008f4:	e5933000 	ldr	r3, [r3]
 c1008f8:	e1a00003 	mov	r0, r3
 c1008fc:	eb000013 	bl	c100950 <leds_display>
 c100900:	e24bd00c 	sub	sp, fp, #12
 c100904:	e89d6800 	ldm	sp, {fp, sp, lr}
 c100908:	e12fff1e 	bx	lr
 c10090c:	0c100080 	.word	0x0c100080

0c100910 <leds_switch>:
 c100910:	e1a0c00d 	mov	ip, sp
 c100914:	e92dd800 	push	{fp, ip, lr, pc}
 c100918:	e24cb004 	sub	fp, ip, #4
 c10091c:	e59f3028 	ldr	r3, [pc, #40]	; c10094c <leds_switch+0x3c>
 c100920:	e5933000 	ldr	r3, [r3]
 c100924:	e2232003 	eor	r2, r3, #3
 c100928:	e59f301c 	ldr	r3, [pc, #28]	; c10094c <leds_switch+0x3c>
 c10092c:	e5832000 	str	r2, [r3]
 c100930:	e59f3014 	ldr	r3, [pc, #20]	; c10094c <leds_switch+0x3c>
 c100934:	e5933000 	ldr	r3, [r3]
 c100938:	e1a00003 	mov	r0, r3
 c10093c:	eb000003 	bl	c100950 <leds_display>
 c100940:	e24bd00c 	sub	sp, fp, #12
 c100944:	e89d6800 	ldm	sp, {fp, sp, lr}
 c100948:	e12fff1e 	bx	lr
 c10094c:	0c100080 	.word	0x0c100080

0c100950 <leds_display>:
 c100950:	e1a0c00d 	mov	ip, sp
 c100954:	e92dd800 	push	{fp, ip, lr, pc}
 c100958:	e24cb004 	sub	fp, ip, #4
 c10095c:	e24dd008 	sub	sp, sp, #8
 c100960:	e50b0010 	str	r0, [fp, #-16]
 c100964:	e59f3094 	ldr	r3, [pc, #148]	; c100a00 <leds_display+0xb0>
 c100968:	e51b2010 	ldr	r2, [fp, #-16]
 c10096c:	e5832000 	str	r2, [r3]
 c100970:	e59f3088 	ldr	r3, [pc, #136]	; c100a00 <leds_display+0xb0>
 c100974:	e5933000 	ldr	r3, [r3]
 c100978:	e2033001 	and	r3, r3, #1
 c10097c:	e20330ff 	and	r3, r3, #255	; 0xff
 c100980:	e3530000 	cmp	r3, #0
 c100984:	0a000005 	beq	c1009a0 <leds_display+0x50>
 c100988:	e59f3074 	ldr	r3, [pc, #116]	; c100a04 <leds_display+0xb4>
 c10098c:	e59f2070 	ldr	r2, [pc, #112]	; c100a04 <leds_display+0xb4>
 c100990:	e5922000 	ldr	r2, [r2]
 c100994:	e3c22c02 	bic	r2, r2, #512	; 0x200
 c100998:	e5832000 	str	r2, [r3]
 c10099c:	ea000004 	b	c1009b4 <leds_display+0x64>
 c1009a0:	e59f305c 	ldr	r3, [pc, #92]	; c100a04 <leds_display+0xb4>
 c1009a4:	e59f2058 	ldr	r2, [pc, #88]	; c100a04 <leds_display+0xb4>
 c1009a8:	e5922000 	ldr	r2, [r2]
 c1009ac:	e3822c02 	orr	r2, r2, #512	; 0x200
 c1009b0:	e5832000 	str	r2, [r3]
 c1009b4:	e59f3044 	ldr	r3, [pc, #68]	; c100a00 <leds_display+0xb0>
 c1009b8:	e5933000 	ldr	r3, [r3]
 c1009bc:	e2033002 	and	r3, r3, #2
 c1009c0:	e3530000 	cmp	r3, #0
 c1009c4:	0a000005 	beq	c1009e0 <leds_display+0x90>
 c1009c8:	e59f3034 	ldr	r3, [pc, #52]	; c100a04 <leds_display+0xb4>
 c1009cc:	e59f2030 	ldr	r2, [pc, #48]	; c100a04 <leds_display+0xb4>
 c1009d0:	e5922000 	ldr	r2, [r2]
 c1009d4:	e3c22b01 	bic	r2, r2, #1024	; 0x400
 c1009d8:	e5832000 	str	r2, [r3]
 c1009dc:	ea000004 	b	c1009f4 <leds_display+0xa4>
 c1009e0:	e59f301c 	ldr	r3, [pc, #28]	; c100a04 <leds_display+0xb4>
 c1009e4:	e59f2018 	ldr	r2, [pc, #24]	; c100a04 <leds_display+0xb4>
 c1009e8:	e5922000 	ldr	r2, [r2]
 c1009ec:	e3822b01 	orr	r2, r2, #1024	; 0x400
 c1009f0:	e5832000 	str	r2, [r3]
 c1009f4:	e24bd00c 	sub	sp, fp, #12
 c1009f8:	e89d6800 	ldm	sp, {fp, sp, lr}
 c1009fc:	e12fff1e 	bx	lr
 c100a00:	0c100080 	.word	0x0c100080
 c100a04:	01d2000c 	.word	0x01d2000c

0c100a08 <main>:
#include "D8Led.h"
#include "timer.h"
#include "keyboard.h"

int main(void)
{	
 c100a08:	e1a0c00d 	mov	ip, sp
 c100a0c:	e92dd800 	push	{fp, ip, lr, pc}
 c100a10:	e24cb004 	sub	fp, ip, #4
	intcont_init();
 c100a14:	e59f3018 	ldr	r3, [pc, #24]	; c100a34 <main+0x2c>
 c100a18:	e1a0e00f 	mov	lr, pc
 c100a1c:	e12fff13 	bx	r3
	D8Led_init();
 c100a20:	ebfffd9c 	bl	c100098 <D8Led_init>
	D8Led_digit( 0 );  	//Displays 0 in the 8Segment display
 c100a24:	e3a00000 	mov	r0, #0
 c100a28:	ebfffdba 	bl	c100118 <D8Led_digit>
	keyboard_init(); 	//Initialize the configuration of the matrix keyboard
 c100a2c:	ebfffde6 	bl	c1001cc <keyboard_init>
		
	while(1);
 c100a30:	eafffffe 	b	c100a30 <main+0x28>
 c100a34:	0c100a38 	.word	0x0c100a38

0c100a38 <intcont_init>:
	return 0;
}

void intcont_init(void) {
 c100a38:	e1a0c00d 	mov	ip, sp
 c100a3c:	e92dd800 	push	{fp, ip, lr, pc}
 c100a40:	e24cb004 	sub	fp, ip, #4
	rINTCON = 0x1;			// - Modo vectorizado, FIQ deshabilitadas
 c100a44:	e3a0361e 	mov	r3, #31457280	; 0x1e00000
 c100a48:	e3a02001 	mov	r2, #1
 c100a4c:	e5832000 	str	r2, [r3]
	rINTMOD = 0x0;	// - Configurar todas las interrupciones por IRQ
 c100a50:	e59f3040 	ldr	r3, [pc, #64]	; c100a98 <intcont_init+0x60>
 c100a54:	e3a02000 	mov	r2, #0
 c100a58:	e5832000 	str	r2, [r3]
	rI_ISPC = 0x3ffffff;	//  -Borramos pendientes por IRQ
 c100a5c:	e59f3038 	ldr	r3, [pc, #56]	; c100a9c <intcont_init+0x64>
 c100a60:	e3e0233f 	mvn	r2, #-67108864	; 0xfc000000
 c100a64:	e5832000 	str	r2, [r3]
	rF_ISPC = 0x3ffffff; 	//  -Borramos pendientes FIQ
 c100a68:	e59f3030 	ldr	r3, [pc, #48]	; c100aa0 <intcont_init+0x68>
 c100a6c:	e3e0233f 	mvn	r2, #-67108864	; 0xfc000000
 c100a70:	e5832000 	str	r2, [r3]
	rEXTINTPND = 0x0;		// - Borrar EXTINPND
 c100a74:	e59f3028 	ldr	r3, [pc, #40]	; c100aa4 <intcont_init+0x6c>
 c100a78:	e3a02000 	mov	r2, #0
 c100a7c:	e5832000 	str	r2, [r3]
	rINTMSK = 0x7FFFFFF;	// - Enmascarar todas las líneas, pero activar BIT_GLOBAL
 c100a80:	e59f3020 	ldr	r3, [pc, #32]	; c100aa8 <intcont_init+0x70>
 c100a84:	e3e0233e 	mvn	r2, #-134217728	; 0xf8000000
 c100a88:	e5832000 	str	r2, [r3]
}
 c100a8c:	e24bd00c 	sub	sp, fp, #12
 c100a90:	e89d6800 	ldm	sp, {fp, sp, lr}
 c100a94:	e12fff1e 	bx	lr
 c100a98:	01e00008 	.word	0x01e00008
 c100a9c:	01e00024 	.word	0x01e00024
 c100aa0:	01e0003c 	.word	0x01e0003c
 c100aa4:	01d20054 	.word	0x01d20054
 c100aa8:	01e0000c 	.word	0x01e0000c

0c100aac <timer_ISR>:
static int counter = 0;

static void timer_ISR(void) __attribute__ ((interrupt ("IRQ")));

static void timer_ISR( void )
{
 c100aac:	e52dc004 	push	{ip}		; (str ip, [sp, #-4]!)
 c100ab0:	e1a0c00d 	mov	ip, sp
 c100ab4:	e92dd80f 	push	{r0, r1, r2, r3, fp, ip, lr, pc}
 c100ab8:	e24cb004 	sub	fp, ip, #4
	//Check if the queue is not corrupted
	if(mQueue.elements != -1)
 c100abc:	e59f3088 	ldr	r3, [pc, #136]	; c100b4c <timer_ISR+0xa0>
 c100ac0:	e1d330b8 	ldrh	r3, [r3, #8]
 c100ac4:	e1a03803 	lsl	r3, r3, #16
 c100ac8:	e1a03843 	asr	r3, r3, #16
 c100acc:	e3730001 	cmn	r3, #1
 c100ad0:	0a000014 	beq	c100b28 <timer_ISR+0x7c>
	{
		if(counter < 4)
 c100ad4:	e59f3074 	ldr	r3, [pc, #116]	; c100b50 <timer_ISR+0xa4>
 c100ad8:	e5933000 	ldr	r3, [r3]
 c100adc:	e3530003 	cmp	r3, #3
 c100ae0:	ca00000f 	bgt	c100b24 <timer_ISR+0x78>
		{
			D8Led_digit(mQueue._queue[counter]);
 c100ae4:	e59f3064 	ldr	r3, [pc, #100]	; c100b50 <timer_ISR+0xa4>
 c100ae8:	e5933000 	ldr	r3, [r3]
 c100aec:	e59f2058 	ldr	r2, [pc, #88]	; c100b4c <timer_ISR+0xa0>
 c100af0:	e1a03083 	lsl	r3, r3, #1
 c100af4:	e0823003 	add	r3, r2, r3
 c100af8:	e1d330b0 	ldrh	r3, [r3]
 c100afc:	e1a03803 	lsl	r3, r3, #16
 c100b00:	e1a03843 	asr	r3, r3, #16
 c100b04:	e1a00003 	mov	r0, r3
 c100b08:	ebfffd82 	bl	c100118 <D8Led_digit>
			counter++;
 c100b0c:	e59f303c 	ldr	r3, [pc, #60]	; c100b50 <timer_ISR+0xa4>
 c100b10:	e5933000 	ldr	r3, [r3]
 c100b14:	e2832001 	add	r2, r3, #1
 c100b18:	e59f3030 	ldr	r3, [pc, #48]	; c100b50 <timer_ISR+0xa4>
 c100b1c:	e5832000 	str	r2, [r3]
 c100b20:	ea000000 	b	c100b28 <timer_ISR+0x7c>
		}
		else
		{
			timer_stop();
 c100b24:	eb000073 	bl	c100cf8 <timer_stop>
		}
	}

	rI_ISPC |= BIT_TIMER1;
 c100b28:	e59f3024 	ldr	r3, [pc, #36]	; c100b54 <timer_ISR+0xa8>
 c100b2c:	e59f2020 	ldr	r2, [pc, #32]	; c100b54 <timer_ISR+0xa8>
 c100b30:	e5922000 	ldr	r2, [r2]
 c100b34:	e3822a01 	orr	r2, r2, #4096	; 0x1000
 c100b38:	e5832000 	str	r2, [r3]
}
 c100b3c:	e24bd01c 	sub	sp, fp, #28
 c100b40:	e89d680f 	ldm	sp, {r0, r1, r2, r3, fp, sp, lr}
 c100b44:	e49dc004 	pop	{ip}		; (ldr ip, [sp], #4)
 c100b48:	e25ef004 	subs	pc, lr, #4
 c100b4c:	0c100088 	.word	0x0c100088
 c100b50:	0c100094 	.word	0x0c100094
 c100b54:	01e00024 	.word	0x01e00024

0c100b58 <timer_init>:

void timer_init(int seconds)
{
 c100b58:	e1a0c00d 	mov	ip, sp
 c100b5c:	e92dd800 	push	{fp, ip, lr, pc}
 c100b60:	e24cb004 	sub	fp, ip, #4
 c100b64:	e24dd008 	sub	sp, sp, #8
 c100b68:	e50b0010 	str	r0, [fp, #-16]
	// Establecer la rutina de servicio para TIMER1
		pISR_TIMER1	 = timer_ISR;
 c100b6c:	e59f3074 	ldr	r3, [pc, #116]	; c100be8 <timer_init+0x90>
 c100b70:	e59f2074 	ldr	r2, [pc, #116]	; c100bec <timer_init+0x94>
 c100b74:	e5832000 	str	r2, [r3]
		* Tomamos N como el mayor divisor de 2*CLK/D => para D = 8 y MCLK = 64MHz, N = 65200
	    * y P = 2*64000000/(62500*8) - 1 = 255, que cabe justo en los 8 bits de pre-escalado
	    */

		//MUX 1 seleccionado. Genera 1/4 (1 sec, 1/8 para 2 secs, 0x20)
		if(seconds == 1)
 c100b78:	e51b3010 	ldr	r3, [fp, #-16]
 c100b7c:	e3530001 	cmp	r3, #1
 c100b80:	1a000003 	bne	c100b94 <timer_init+0x3c>
			rTCFG1 = 0x10;
 c100b84:	e59f3064 	ldr	r3, [pc, #100]	; c100bf0 <timer_init+0x98>
 c100b88:	e3a02010 	mov	r2, #16
 c100b8c:	e5832000 	str	r2, [r3]
 c100b90:	ea000002 	b	c100ba0 <timer_init+0x48>
		else
			rTCFG1 = 0x20;
 c100b94:	e59f3054 	ldr	r3, [pc, #84]	; c100bf0 <timer_init+0x98>
 c100b98:	e3a02020 	mov	r2, #32
 c100b9c:	e5832000 	str	r2, [r3]

		/* pre-escalado 255 */
		rTCFG0 = 0xFF;
 c100ba0:	e59f304c 	ldr	r3, [pc, #76]	; c100bf4 <timer_init+0x9c>
 c100ba4:	e3a020ff 	mov	r2, #255	; 0xff
 c100ba8:	e5832000 	str	r2, [r3]
		 * 0000 1111 1111 0000 00000
		 * 	   [15]	   [8]
		 */

		/*Valor de cuenta 62500*/
		rTCNTB1 = 0xF424;  //62500 = 0xF424
 c100bac:	e59f3044 	ldr	r3, [pc, #68]	; c100bf8 <timer_init+0xa0>
 c100bb0:	e59f2044 	ldr	r2, [pc, #68]	; c100bfc <timer_init+0xa4>
 c100bb4:	e5832000 	str	r2, [r3]

		rTCMPB1 = 0;
 c100bb8:	e59f3040 	ldr	r3, [pc, #64]	; c100c00 <timer_init+0xa8>
 c100bbc:	e3a02000 	mov	r2, #0
 c100bc0:	e5832000 	str	r2, [r3]
		rI_ISPC |= BIT_TIMER1; //Limpiamos linea interrupcion del timer
 c100bc4:	e59f3038 	ldr	r3, [pc, #56]	; c100c04 <timer_init+0xac>
 c100bc8:	e59f2034 	ldr	r2, [pc, #52]	; c100c04 <timer_init+0xac>
 c100bcc:	e5922000 	ldr	r2, [r2]
 c100bd0:	e3822a01 	orr	r2, r2, #4096	; 0x1000
 c100bd4:	e5832000 	str	r2, [r3]



		/* Paramos el timer al principio */
		timer_stop();
 c100bd8:	eb000046 	bl	c100cf8 <timer_stop>
}
 c100bdc:	e24bd00c 	sub	sp, fp, #12
 c100be0:	e89d6800 	ldm	sp, {fp, sp, lr}
 c100be4:	e12fff1e 	bx	lr
 c100be8:	0c7fff50 	.word	0x0c7fff50
 c100bec:	0c100aac 	.word	0x0c100aac
 c100bf0:	01d50004 	.word	0x01d50004
 c100bf4:	01d50000 	.word	0x01d50000
 c100bf8:	01d50018 	.word	0x01d50018
 c100bfc:	0000f424 	.word	0x0000f424
 c100c00:	01d5001c 	.word	0x01d5001c
 c100c04:	01e00024 	.word	0x01e00024

0c100c08 <timer_start>:
 * 	desenmascarar.
 *
 * 	Los comentarios dan una idea de lo que hay que ir haciendo.
 */
void timer_start(tQueue queue)
{
 c100c08:	e1a0c00d 	mov	ip, sp
 c100c0c:	e92dd800 	push	{fp, ip, lr, pc}
 c100c10:	e24cb004 	sub	fp, ip, #4
 c100c14:	e24dd018 	sub	sp, sp, #24
 c100c18:	e24b3020 	sub	r3, fp, #32
 c100c1c:	e8830007 	stm	r3, {r0, r1, r2}

	int BIT_MANUAL_T1 = 0x1<<9;
 c100c20:	e3a03c02 	mov	r3, #512	; 0x200
 c100c24:	e50b3010 	str	r3, [fp, #-16]
	int BIT_START_T1 =  0x1<<8;
 c100c28:	e3a03c01 	mov	r3, #256	; 0x100
 c100c2c:	e50b3014 	str	r3, [fp, #-20]	; 0xffffffec

    /* Activar bit de manual update */

	rTCON |= BIT_MANUAL_T1;
 c100c30:	e59f30a8 	ldr	r3, [pc, #168]	; c100ce0 <timer_start+0xd8>
 c100c34:	e59f20a4 	ldr	r2, [pc, #164]	; c100ce0 <timer_start+0xd8>
 c100c38:	e5921000 	ldr	r1, [r2]
 c100c3c:	e51b2010 	ldr	r2, [fp, #-16]
 c100c40:	e1812002 	orr	r2, r1, r2
 c100c44:	e5832000 	str	r2, [r3]

	/* Se borra el bit de interrupción pendiente del TIMER1 */

	rI_ISPC |= BIT_TIMER1;
 c100c48:	e59f3094 	ldr	r3, [pc, #148]	; c100ce4 <timer_start+0xdc>
 c100c4c:	e59f2090 	ldr	r2, [pc, #144]	; c100ce4 <timer_start+0xdc>
 c100c50:	e5922000 	ldr	r2, [r2]
 c100c54:	e3822a01 	orr	r2, r2, #4096	; 0x1000
 c100c58:	e5832000 	str	r2, [r3]

	/* not manual update, start and auto-reload*/

	rTCON = BIT_START_T1 | 0x800;
 c100c5c:	e59f307c 	ldr	r3, [pc, #124]	; c100ce0 <timer_start+0xd8>
 c100c60:	e51b2014 	ldr	r2, [fp, #-20]	; 0xffffffec
 c100c64:	e3822b02 	orr	r2, r2, #2048	; 0x800
 c100c68:	e5832000 	str	r2, [r3]

	/* Se borra el bit de interrupción pendiente del TIMER2 */

	rI_ISPC |= BIT_TIMER1;
 c100c6c:	e59f3070 	ldr	r3, [pc, #112]	; c100ce4 <timer_start+0xdc>
 c100c70:	e59f206c 	ldr	r2, [pc, #108]	; c100ce4 <timer_start+0xdc>
 c100c74:	e5922000 	ldr	r2, [r2]
 c100c78:	e3822a01 	orr	r2, r2, #4096	; 0x1000
 c100c7c:	e5832000 	str	r2, [r3]

	timerStarted = 1;
 c100c80:	e59f3060 	ldr	r3, [pc, #96]	; c100ce8 <timer_start+0xe0>
 c100c84:	e3a02001 	mov	r2, #1
 c100c88:	e5832000 	str	r2, [r3]

	/* Desenmascara la linea del timer 2 y el bit global */
	rINTMSK &= ~BIT_TIMER1;
 c100c8c:	e59f3058 	ldr	r3, [pc, #88]	; c100cec <timer_start+0xe4>
 c100c90:	e59f2054 	ldr	r2, [pc, #84]	; c100cec <timer_start+0xe4>
 c100c94:	e5922000 	ldr	r2, [r2]
 c100c98:	e3c22a01 	bic	r2, r2, #4096	; 0x1000
 c100c9c:	e5832000 	str	r2, [r3]
	rINTMSK &= ~BIT_GLOBAL;
 c100ca0:	e59f3044 	ldr	r3, [pc, #68]	; c100cec <timer_start+0xe4>
 c100ca4:	e59f2040 	ldr	r2, [pc, #64]	; c100cec <timer_start+0xe4>
 c100ca8:	e5922000 	ldr	r2, [r2]
 c100cac:	e3c22301 	bic	r2, r2, #67108864	; 0x4000000
 c100cb0:	e5832000 	str	r2, [r3]

	mQueue = queue;
 c100cb4:	e59f3034 	ldr	r3, [pc, #52]	; c100cf0 <timer_start+0xe8>
 c100cb8:	e24b2020 	sub	r2, fp, #32
 c100cbc:	e8920007 	ldm	r2, {r0, r1, r2}
 c100cc0:	e8a30003 	stmia	r3!, {r0, r1}
 c100cc4:	e1c320b0 	strh	r2, [r3]
	counter = 0;
 c100cc8:	e59f3024 	ldr	r3, [pc, #36]	; c100cf4 <timer_start+0xec>
 c100ccc:	e3a02000 	mov	r2, #0
 c100cd0:	e5832000 	str	r2, [r3]
}
 c100cd4:	e24bd00c 	sub	sp, fp, #12
 c100cd8:	e89d6800 	ldm	sp, {fp, sp, lr}
 c100cdc:	e12fff1e 	bx	lr
 c100ce0:	01d50008 	.word	0x01d50008
 c100ce4:	01e00024 	.word	0x01e00024
 c100ce8:	0c100084 	.word	0x0c100084
 c100cec:	01e0000c 	.word	0x01e0000c
 c100cf0:	0c100088 	.word	0x0c100088
 c100cf4:	0c100094 	.word	0x0c100094

0c100cf8 <timer_stop>:

/*
 * Debe parar el timer 2 y enmascarar su línea de interrupción */
void timer_stop(void)
{
 c100cf8:	e1a0c00d 	mov	ip, sp
 c100cfc:	e92dd800 	push	{fp, ip, lr, pc}
 c100d00:	e24cb004 	sub	fp, ip, #4
 c100d04:	e24dd008 	sub	sp, sp, #8
	int BIT_MANUAL_T1 = 0x1<<9;
 c100d08:	e3a03c02 	mov	r3, #512	; 0x200
 c100d0c:	e50b3010 	str	r3, [fp, #-16]

		/* Activar bit de manual update */

		rTCON |= BIT_MANUAL_T1;
 c100d10:	e59f3070 	ldr	r3, [pc, #112]	; c100d88 <timer_stop+0x90>
 c100d14:	e59f206c 	ldr	r2, [pc, #108]	; c100d88 <timer_stop+0x90>
 c100d18:	e5921000 	ldr	r1, [r2]
 c100d1c:	e51b2010 	ldr	r2, [fp, #-16]
 c100d20:	e1812002 	orr	r2, r1, r2
 c100d24:	e5832000 	str	r2, [r3]

		/* Se borra el bit de interrupción pendiente del TIMER1 */

		rI_ISPC |= BIT_TIMER1;
 c100d28:	e59f305c 	ldr	r3, [pc, #92]	; c100d8c <timer_stop+0x94>
 c100d2c:	e59f2058 	ldr	r2, [pc, #88]	; c100d8c <timer_stop+0x94>
 c100d30:	e5922000 	ldr	r2, [r2]
 c100d34:	e3822a01 	orr	r2, r2, #4096	; 0x1000
 c100d38:	e5832000 	str	r2, [r3]

		//stop and auto-reload
		rTCON = 0x800;
 c100d3c:	e59f3044 	ldr	r3, [pc, #68]	; c100d88 <timer_stop+0x90>
 c100d40:	e3a02b02 	mov	r2, #2048	; 0x800
 c100d44:	e5832000 	str	r2, [r3]

		/* Se borra el bit de interrupción pendiente del TIMER1 */

		rI_ISPC |= BIT_TIMER1;
 c100d48:	e59f303c 	ldr	r3, [pc, #60]	; c100d8c <timer_stop+0x94>
 c100d4c:	e59f2038 	ldr	r2, [pc, #56]	; c100d8c <timer_stop+0x94>
 c100d50:	e5922000 	ldr	r2, [r2]
 c100d54:	e3822a01 	orr	r2, r2, #4096	; 0x1000
 c100d58:	e5832000 	str	r2, [r3]

		timerStarted = 0;
 c100d5c:	e59f302c 	ldr	r3, [pc, #44]	; c100d90 <timer_stop+0x98>
 c100d60:	e3a02000 	mov	r2, #0
 c100d64:	e5832000 	str	r2, [r3]

		/* Enmascarar la linea del timer 1 */
		 rINTMSK |= BIT_TIMER1;
 c100d68:	e59f3024 	ldr	r3, [pc, #36]	; c100d94 <timer_stop+0x9c>
 c100d6c:	e59f2020 	ldr	r2, [pc, #32]	; c100d94 <timer_stop+0x9c>
 c100d70:	e5922000 	ldr	r2, [r2]
 c100d74:	e3822a01 	orr	r2, r2, #4096	; 0x1000
 c100d78:	e5832000 	str	r2, [r3]
}
 c100d7c:	e24bd00c 	sub	sp, fp, #12
 c100d80:	e89d6800 	ldm	sp, {fp, sp, lr}
 c100d84:	e12fff1e 	bx	lr
 c100d88:	01d50008 	.word	0x01d50008
 c100d8c:	01e00024 	.word	0x01e00024
 c100d90:	0c100084 	.word	0x0c100084
 c100d94:	01e0000c 	.word	0x01e0000c

0c100d98 <timer_isStop>:

int timer_isStop()
{
 c100d98:	e1a0c00d 	mov	ip, sp
 c100d9c:	e92dd800 	push	{fp, ip, lr, pc}
 c100da0:	e24cb004 	sub	fp, ip, #4
	return !timerStarted;
 c100da4:	e59f301c 	ldr	r3, [pc, #28]	; c100dc8 <timer_isStop+0x30>
 c100da8:	e5933000 	ldr	r3, [r3]
 c100dac:	e3530000 	cmp	r3, #0
 c100db0:	13a03000 	movne	r3, #0
 c100db4:	03a03001 	moveq	r3, #1
}
 c100db8:	e1a00003 	mov	r0, r3
 c100dbc:	e24bd00c 	sub	sp, fp, #12
 c100dc0:	e89d6800 	ldm	sp, {fp, sp, lr}
 c100dc4:	e12fff1e 	bx	lr
 c100dc8:	0c100084 	.word	0x0c100084

0c100dcc <Delay>:

void Delay(int time)
// time=0: adjust the Delay function by WatchDog timer.//
// time>0: the number of loop time//
// 100us resolution.//
{
 c100dcc:	e1a0c00d 	mov	ip, sp
 c100dd0:	e92dd800 	push	{fp, ip, lr, pc}
 c100dd4:	e24cb004 	sub	fp, ip, #4
 c100dd8:	e24dd010 	sub	sp, sp, #16
 c100ddc:	e50b0018 	str	r0, [fp, #-24]	; 0xffffffe8
	int i,adjust=0;
 c100de0:	e3a03000 	mov	r3, #0
 c100de4:	e50b3014 	str	r3, [fp, #-20]	; 0xffffffec
	if(time==0)
 c100de8:	e51b3018 	ldr	r3, [fp, #-24]	; 0xffffffe8
 c100dec:	e3530000 	cmp	r3, #0
 c100df0:	1a000021 	bne	c100e7c <Delay+0xb0>
	{
		time=200;
 c100df4:	e3a030c8 	mov	r3, #200	; 0xc8
 c100df8:	e50b3018 	str	r3, [fp, #-24]	; 0xffffffe8
		adjust=1;
 c100dfc:	e3a03001 	mov	r3, #1
 c100e00:	e50b3014 	str	r3, [fp, #-20]	; 0xffffffec
		delayLoopCount=400;
 c100e04:	e59f30d8 	ldr	r3, [pc, #216]	; c100ee4 <Delay+0x118>
 c100e08:	e3a02e19 	mov	r2, #400	; 0x190
 c100e0c:	e5832000 	str	r2, [r3]
		rWTCON=((MCLK/1000000-1)<<8)|(2<<3);	// 1M/64,Watch-dog,nRESET,interrupt disable//
 c100e10:	e59f30d0 	ldr	r3, [pc, #208]	; c100ee8 <Delay+0x11c>
 c100e14:	e59f20d0 	ldr	r2, [pc, #208]	; c100eec <Delay+0x120>
 c100e18:	e5832000 	str	r2, [r3]
		rWTDAT=0xffff;
 c100e1c:	e59f30cc 	ldr	r3, [pc, #204]	; c100ef0 <Delay+0x124>
 c100e20:	e59f20cc 	ldr	r2, [pc, #204]	; c100ef4 <Delay+0x128>
 c100e24:	e5832000 	str	r2, [r3]
		rWTCNT=0xffff;
 c100e28:	e59f30c8 	ldr	r3, [pc, #200]	; c100ef8 <Delay+0x12c>
 c100e2c:	e59f20c0 	ldr	r2, [pc, #192]	; c100ef4 <Delay+0x128>
 c100e30:	e5832000 	str	r2, [r3]
		rWTCON=((MCLK/1000000-1)<<8)|(2<<3)|(1<<5); // 1M/64,Watch-dog enable,nRESET,interrupt disable //
 c100e34:	e59f30ac 	ldr	r3, [pc, #172]	; c100ee8 <Delay+0x11c>
 c100e38:	e59f20bc 	ldr	r2, [pc, #188]	; c100efc <Delay+0x130>
 c100e3c:	e5832000 	str	r2, [r3]
	}
	for(;time>0;time--)
 c100e40:	ea00000d 	b	c100e7c <Delay+0xb0>
		for(i=0;i<delayLoopCount;i++);
 c100e44:	e3a03000 	mov	r3, #0
 c100e48:	e50b3010 	str	r3, [fp, #-16]
 c100e4c:	ea000002 	b	c100e5c <Delay+0x90>
 c100e50:	e51b3010 	ldr	r3, [fp, #-16]
 c100e54:	e2833001 	add	r3, r3, #1
 c100e58:	e50b3010 	str	r3, [fp, #-16]
 c100e5c:	e59f3080 	ldr	r3, [pc, #128]	; c100ee4 <Delay+0x118>
 c100e60:	e5933000 	ldr	r3, [r3]
 c100e64:	e51b2010 	ldr	r2, [fp, #-16]
 c100e68:	e1520003 	cmp	r2, r3
 c100e6c:	bafffff7 	blt	c100e50 <Delay+0x84>
		rWTCON=((MCLK/1000000-1)<<8)|(2<<3);	// 1M/64,Watch-dog,nRESET,interrupt disable//
		rWTDAT=0xffff;
		rWTCNT=0xffff;
		rWTCON=((MCLK/1000000-1)<<8)|(2<<3)|(1<<5); // 1M/64,Watch-dog enable,nRESET,interrupt disable //
	}
	for(;time>0;time--)
 c100e70:	e51b3018 	ldr	r3, [fp, #-24]	; 0xffffffe8
 c100e74:	e2433001 	sub	r3, r3, #1
 c100e78:	e50b3018 	str	r3, [fp, #-24]	; 0xffffffe8
 c100e7c:	e51b3018 	ldr	r3, [fp, #-24]	; 0xffffffe8
 c100e80:	e3530000 	cmp	r3, #0
 c100e84:	caffffee 	bgt	c100e44 <Delay+0x78>
		for(i=0;i<delayLoopCount;i++);
	if(adjust==1)
 c100e88:	e51b3014 	ldr	r3, [fp, #-20]	; 0xffffffec
 c100e8c:	e3530001 	cmp	r3, #1
 c100e90:	1a000010 	bne	c100ed8 <Delay+0x10c>
	{
		rWTCON=((MCLK/1000000-1)<<8)|(2<<3);
 c100e94:	e59f304c 	ldr	r3, [pc, #76]	; c100ee8 <Delay+0x11c>
 c100e98:	e59f204c 	ldr	r2, [pc, #76]	; c100eec <Delay+0x120>
 c100e9c:	e5832000 	str	r2, [r3]
		i=0xffff-rWTCNT;   //  1count/16us?????????//
 c100ea0:	e59f3050 	ldr	r3, [pc, #80]	; c100ef8 <Delay+0x12c>
 c100ea4:	e5933000 	ldr	r3, [r3]
 c100ea8:	e2633cff 	rsb	r3, r3, #65280	; 0xff00
 c100eac:	e28330ff 	add	r3, r3, #255	; 0xff
 c100eb0:	e50b3010 	str	r3, [fp, #-16]
		delayLoopCount=8000000/(i*64);	//400*100/(i*64/200)   //
 c100eb4:	e51b3010 	ldr	r3, [fp, #-16]
 c100eb8:	e1a03303 	lsl	r3, r3, #6
 c100ebc:	e59f003c 	ldr	r0, [pc, #60]	; c100f00 <Delay+0x134>
 c100ec0:	e1a01003 	mov	r1, r3
 c100ec4:	eb00004d 	bl	c101000 <__aeabi_idiv>
 c100ec8:	e1a03000 	mov	r3, r0
 c100ecc:	e1a02003 	mov	r2, r3
 c100ed0:	e59f300c 	ldr	r3, [pc, #12]	; c100ee4 <Delay+0x118>
 c100ed4:	e5832000 	str	r2, [r3]
	}
}
 c100ed8:	e24bd00c 	sub	sp, fp, #12
 c100edc:	e89d6800 	ldm	sp, {fp, sp, lr}
 c100ee0:	e12fff1e 	bx	lr
 c100ee4:	0c100060 	.word	0x0c100060
 c100ee8:	01d30000 	.word	0x01d30000
 c100eec:	00003f10 	.word	0x00003f10
 c100ef0:	01d30004 	.word	0x01d30004
 c100ef4:	0000ffff 	.word	0x0000ffff
 c100ef8:	01d30008 	.word	0x01d30008
 c100efc:	00003f30 	.word	0x00003f30
 c100f00:	007a1200 	.word	0x007a1200

0c100f04 <insertElementToQueue>:

void insertElementToQueue(tQueue* queue, int element)
{
 c100f04:	e1a0c00d 	mov	ip, sp
 c100f08:	e92dd800 	push	{fp, ip, lr, pc}
 c100f0c:	e24cb004 	sub	fp, ip, #4
 c100f10:	e24dd010 	sub	sp, sp, #16
 c100f14:	e50b0018 	str	r0, [fp, #-24]	; 0xffffffe8
 c100f18:	e50b101c 	str	r1, [fp, #-28]	; 0xffffffe4
	if(queue->elements < 4)
 c100f1c:	e51b3018 	ldr	r3, [fp, #-24]	; 0xffffffe8
 c100f20:	e1d330b8 	ldrh	r3, [r3, #8]
 c100f24:	e1a03803 	lsl	r3, r3, #16
 c100f28:	e1a03843 	asr	r3, r3, #16
 c100f2c:	e3530003 	cmp	r3, #3
 c100f30:	ca000016 	bgt	c100f90 <insertElementToQueue+0x8c>
	{
		queue->_queue[queue->elements] = element;
 c100f34:	e51b3018 	ldr	r3, [fp, #-24]	; 0xffffffe8
 c100f38:	e1d330b8 	ldrh	r3, [r3, #8]
 c100f3c:	e1a03803 	lsl	r3, r3, #16
 c100f40:	e1a03843 	asr	r3, r3, #16
 c100f44:	e51b201c 	ldr	r2, [fp, #-28]	; 0xffffffe4
 c100f48:	e1a02802 	lsl	r2, r2, #16
 c100f4c:	e1a02822 	lsr	r2, r2, #16
 c100f50:	e51b1018 	ldr	r1, [fp, #-24]	; 0xffffffe8
 c100f54:	e1a03083 	lsl	r3, r3, #1
 c100f58:	e0813003 	add	r3, r1, r3
 c100f5c:	e1c320b0 	strh	r2, [r3]
		queue->elements = queue->elements + 1;
 c100f60:	e51b3018 	ldr	r3, [fp, #-24]	; 0xffffffe8
 c100f64:	e1d330b8 	ldrh	r3, [r3, #8]
 c100f68:	e1a03803 	lsl	r3, r3, #16
 c100f6c:	e1a03823 	lsr	r3, r3, #16
 c100f70:	e2833001 	add	r3, r3, #1
 c100f74:	e1a03803 	lsl	r3, r3, #16
 c100f78:	e1a03823 	lsr	r3, r3, #16
 c100f7c:	e1a03803 	lsl	r3, r3, #16
 c100f80:	e1a02823 	lsr	r2, r3, #16
 c100f84:	e51b3018 	ldr	r3, [fp, #-24]	; 0xffffffe8
 c100f88:	e1c320b8 	strh	r2, [r3, #8]
 c100f8c:	ea000018 	b	c100ff4 <insertElementToQueue+0xf0>
	}
	else
	{
		//Mover la arrey para la izquierda e insertar el nuevo elemento
		int i;
		for(i = 0; i < 3; i++)
 c100f90:	e3a03000 	mov	r3, #0
 c100f94:	e50b3010 	str	r3, [fp, #-16]
 c100f98:	ea00000d 	b	c100fd4 <insertElementToQueue+0xd0>
		{
			queue->_queue[i] = queue->_queue[i + 1];
 c100f9c:	e51b3010 	ldr	r3, [fp, #-16]
 c100fa0:	e2833001 	add	r3, r3, #1
 c100fa4:	e51b2018 	ldr	r2, [fp, #-24]	; 0xffffffe8
 c100fa8:	e1a03083 	lsl	r3, r3, #1
 c100fac:	e0823003 	add	r3, r2, r3
 c100fb0:	e1d320b0 	ldrh	r2, [r3]
 c100fb4:	e51b1018 	ldr	r1, [fp, #-24]	; 0xffffffe8
 c100fb8:	e51b3010 	ldr	r3, [fp, #-16]
 c100fbc:	e1a03083 	lsl	r3, r3, #1
 c100fc0:	e0813003 	add	r3, r1, r3
 c100fc4:	e1c320b0 	strh	r2, [r3]
	}
	else
	{
		//Mover la arrey para la izquierda e insertar el nuevo elemento
		int i;
		for(i = 0; i < 3; i++)
 c100fc8:	e51b3010 	ldr	r3, [fp, #-16]
 c100fcc:	e2833001 	add	r3, r3, #1
 c100fd0:	e50b3010 	str	r3, [fp, #-16]
 c100fd4:	e51b3010 	ldr	r3, [fp, #-16]
 c100fd8:	e3530002 	cmp	r3, #2
 c100fdc:	daffffee 	ble	c100f9c <insertElementToQueue+0x98>
		{
			queue->_queue[i] = queue->_queue[i + 1];
		}

		queue->_queue[3] = element;
 c100fe0:	e51b301c 	ldr	r3, [fp, #-28]	; 0xffffffe4
 c100fe4:	e1a03803 	lsl	r3, r3, #16
 c100fe8:	e1a02823 	lsr	r2, r3, #16
 c100fec:	e51b3018 	ldr	r3, [fp, #-24]	; 0xffffffe8
 c100ff0:	e1c320b6 	strh	r2, [r3, #6]
	}
}
 c100ff4:	e24bd00c 	sub	sp, fp, #12
 c100ff8:	e89d6800 	ldm	sp, {fp, sp, lr}
 c100ffc:	e12fff1e 	bx	lr

0c101000 <__aeabi_idiv>:
 c101000:	e3510000 	cmp	r1, #0
 c101004:	0a000043 	beq	c101118 <.divsi3_skip_div0_test+0x110>

0c101008 <.divsi3_skip_div0_test>:
 c101008:	e020c001 	eor	ip, r0, r1
 c10100c:	42611000 	rsbmi	r1, r1, #0
 c101010:	e2512001 	subs	r2, r1, #1
 c101014:	0a000027 	beq	c1010b8 <.divsi3_skip_div0_test+0xb0>
 c101018:	e1b03000 	movs	r3, r0
 c10101c:	42603000 	rsbmi	r3, r0, #0
 c101020:	e1530001 	cmp	r3, r1
 c101024:	9a000026 	bls	c1010c4 <.divsi3_skip_div0_test+0xbc>
 c101028:	e1110002 	tst	r1, r2
 c10102c:	0a000028 	beq	c1010d4 <.divsi3_skip_div0_test+0xcc>
 c101030:	e311020e 	tst	r1, #-536870912	; 0xe0000000
 c101034:	01a01181 	lsleq	r1, r1, #3
 c101038:	03a02008 	moveq	r2, #8
 c10103c:	13a02001 	movne	r2, #1
 c101040:	e3510201 	cmp	r1, #268435456	; 0x10000000
 c101044:	31510003 	cmpcc	r1, r3
 c101048:	31a01201 	lslcc	r1, r1, #4
 c10104c:	31a02202 	lslcc	r2, r2, #4
 c101050:	3afffffa 	bcc	c101040 <.divsi3_skip_div0_test+0x38>
 c101054:	e3510102 	cmp	r1, #-2147483648	; 0x80000000
 c101058:	31510003 	cmpcc	r1, r3
 c10105c:	31a01081 	lslcc	r1, r1, #1
 c101060:	31a02082 	lslcc	r2, r2, #1
 c101064:	3afffffa 	bcc	c101054 <.divsi3_skip_div0_test+0x4c>
 c101068:	e3a00000 	mov	r0, #0
 c10106c:	e1530001 	cmp	r3, r1
 c101070:	20433001 	subcs	r3, r3, r1
 c101074:	21800002 	orrcs	r0, r0, r2
 c101078:	e15300a1 	cmp	r3, r1, lsr #1
 c10107c:	204330a1 	subcs	r3, r3, r1, lsr #1
 c101080:	218000a2 	orrcs	r0, r0, r2, lsr #1
 c101084:	e1530121 	cmp	r3, r1, lsr #2
 c101088:	20433121 	subcs	r3, r3, r1, lsr #2
 c10108c:	21800122 	orrcs	r0, r0, r2, lsr #2
 c101090:	e15301a1 	cmp	r3, r1, lsr #3
 c101094:	204331a1 	subcs	r3, r3, r1, lsr #3
 c101098:	218001a2 	orrcs	r0, r0, r2, lsr #3
 c10109c:	e3530000 	cmp	r3, #0
 c1010a0:	11b02222 	lsrsne	r2, r2, #4
 c1010a4:	11a01221 	lsrne	r1, r1, #4
 c1010a8:	1affffef 	bne	c10106c <.divsi3_skip_div0_test+0x64>
 c1010ac:	e35c0000 	cmp	ip, #0
 c1010b0:	42600000 	rsbmi	r0, r0, #0
 c1010b4:	e12fff1e 	bx	lr
 c1010b8:	e13c0000 	teq	ip, r0
 c1010bc:	42600000 	rsbmi	r0, r0, #0
 c1010c0:	e12fff1e 	bx	lr
 c1010c4:	33a00000 	movcc	r0, #0
 c1010c8:	01a00fcc 	asreq	r0, ip, #31
 c1010cc:	03800001 	orreq	r0, r0, #1
 c1010d0:	e12fff1e 	bx	lr
 c1010d4:	e3510801 	cmp	r1, #65536	; 0x10000
 c1010d8:	21a01821 	lsrcs	r1, r1, #16
 c1010dc:	23a02010 	movcs	r2, #16
 c1010e0:	33a02000 	movcc	r2, #0
 c1010e4:	e3510c01 	cmp	r1, #256	; 0x100
 c1010e8:	21a01421 	lsrcs	r1, r1, #8
 c1010ec:	22822008 	addcs	r2, r2, #8
 c1010f0:	e3510010 	cmp	r1, #16
 c1010f4:	21a01221 	lsrcs	r1, r1, #4
 c1010f8:	22822004 	addcs	r2, r2, #4
 c1010fc:	e3510004 	cmp	r1, #4
 c101100:	82822003 	addhi	r2, r2, #3
 c101104:	908220a1 	addls	r2, r2, r1, lsr #1
 c101108:	e35c0000 	cmp	ip, #0
 c10110c:	e1a00233 	lsr	r0, r3, r2
 c101110:	42600000 	rsbmi	r0, r0, #0
 c101114:	e12fff1e 	bx	lr
 c101118:	e3500000 	cmp	r0, #0
 c10111c:	c3e00102 	mvngt	r0, #-2147483648	; 0x80000000
 c101120:	b3a00102 	movlt	r0, #-2147483648	; 0x80000000
 c101124:	ea000007 	b	c101148 <__aeabi_idiv0>

0c101128 <__aeabi_idivmod>:
 c101128:	e3510000 	cmp	r1, #0
 c10112c:	0afffff9 	beq	c101118 <.divsi3_skip_div0_test+0x110>
 c101130:	e92d4003 	push	{r0, r1, lr}
 c101134:	ebffffb3 	bl	c101008 <.divsi3_skip_div0_test>
 c101138:	e8bd4006 	pop	{r1, r2, lr}
 c10113c:	e0030092 	mul	r3, r2, r0
 c101140:	e0411003 	sub	r1, r1, r3
 c101144:	e12fff1e 	bx	lr

0c101148 <__aeabi_idiv0>:
 c101148:	e12fff1e 	bx	lr
